target datalayout = "e-m:e-p270:32:32-p271:32:32-p272:64:64-i64:64-i128:128-f80:128-n8:16:32:64-S128"
target triple = "x86_64-pc-linux-gnu"

; Function Attrs: mustprogress nounwind uwtable
define noundef i64 @_ZN10duckdb_lz425read_long_length_no_checkEPPKh(ptr noundef %0) #0 {
  %2 = alloca ptr, align 8
  %3 = alloca i64, align 8
  %4 = alloca i64, align 8
  store ptr %0, ptr %2, align 8, !tbaa !37
  call void @llvm.lifetime.start.p0(i64 8, ptr %3) #9
  call void @llvm.lifetime.start.p0(i64 8, ptr %4) #9
  store i64 0, ptr %4, align 8, !tbaa !15
  br label %5

5:                                                ; preds = %16, %1
  %6 = load ptr, ptr %2, align 8, !tbaa !37
  %7 = load ptr, ptr %6, align 8, !tbaa !9
  %8 = load i8, ptr %7, align 1, !tbaa !25
  %9 = zext i8 %8 to i64
  store i64 %9, ptr %3, align 8, !tbaa !15
  %10 = load ptr, ptr %2, align 8, !tbaa !37
  %11 = load ptr, ptr %10, align 8, !tbaa !9
  %12 = getelementptr inbounds nuw i8, ptr %11, i32 1
  store ptr %12, ptr %10, align 8, !tbaa !9
  %13 = load i64, ptr %3, align 8, !tbaa !15
  %14 = load i64, ptr %4, align 8, !tbaa !15
  %15 = add i64 %14, %13
  store i64 %15, ptr %4, align 8, !tbaa !15
  br label %16

16:                                               ; preds = %5
  %17 = load i64, ptr %3, align 8, !tbaa !15
  %18 = icmp eq i64 %17, 255
  br i1 %18, label %5, label %19, !llvm.loop !39

19:                                               ; preds = %16
  %20 = load i64, ptr %4, align 8, !tbaa !15
  call void @llvm.lifetime.end.p0(i64 8, ptr %4) #9
  call void @llvm.lifetime.end.p0(i64 8, ptr %3) #9
  ret i64 %20
}