; Function Attrs: mustprogress nofree norecurse nosync nounwind memory(read, argmem: readwrite, inaccessiblemem: none) uwtable
define noundef i64 @_ZN10duckdb_lz425read_long_length_no_checkEPPKh(ptr noundef captures(none) %0) local_unnamed_addr #13 {
  %.promoted = load ptr, ptr %0, align 8, !tbaa !30
  br label %2

2:                                                ; preds = %2, %1
  %3 = phi ptr [ %.promoted, %1 ], [ %6, %2 ]
  %.0 = phi i64 [ 0, %1 ], [ %7, %2 ]
  %4 = load i8, ptr %3, align 1, !tbaa !3
  %5 = zext i8 %4 to i64
  %6 = getelementptr inbounds nuw i8, ptr %3, i64 1
  store ptr %6, ptr %0, align 8, !tbaa !30
  %7 = add i64 %.0, %5
  %8 = icmp eq i8 %4, -1
  br i1 %8, label %2, label %9, !llvm.loop !31

9:                                                ; preds = %2
  ret i64 %7
}